; ModuleID = 'source-C-CXX/53/753.cpp'
source_filename = "source-C-CXX/53/753.cpp"
target datalayout = "e-m:e-p270:32:32-p271:32:32-p272:64:64-i64:64-f80:128-n8:16:32:64-S128"
target triple = "x86_64-pc-linux-gnu"

%"class.std::ios_base::Init" = type { i8 }
%"class.std::basic_istream" = type { i32 (...)**, i64, %"class.std::basic_ios" }
%"class.std::basic_ios" = type { %"class.std::ios_base", %"class.std::basic_ostream"*, i8, i8, %"class.std::basic_streambuf"*, %"class.std::ctype"*, %"class.std::num_put"*, %"class.std::num_get"* }
%"class.std::ios_base" = type { i32 (...)**, i64, i64, i32, i32, i32, %"struct.std::ios_base::_Callback_list"*, %"struct.std::ios_base::_Words", [8 x %"struct.std::ios_base::_Words"], i32, %"struct.std::ios_base::_Words"*, %"class.std::locale" }
%"struct.std::ios_base::_Callback_list" = type { %"struct.std::ios_base::_Callback_list"*, void (i32, %"class.std::ios_base"*, i32)*, i32, i32 }
%"struct.std::ios_base::_Words" = type { i8*, i64 }
%"class.std::locale" = type { %"class.std::locale::_Impl"* }
%"class.std::locale::_Impl" = type { i32, %"class.std::locale::facet"**, i64, %"class.std::locale::facet"**, i8** }
%"class.std::locale::facet" = type <{ i32 (...)**, i32, [4 x i8] }>
%"class.std::basic_ostream" = type { i32 (...)**, %"class.std::basic_ios" }
%"class.std::basic_streambuf" = type { i32 (...)**, i8*, i8*, i8*, i8*, i8*, i8*, %"class.std::locale" }
%"class.std::ctype" = type <{ %"class.std::locale::facet.base", [4 x i8], %struct.__locale_struct*, i8, [7 x i8], i32*, i32*, i16*, i8, [256 x i8], [256 x i8], i8, [6 x i8] }>
%"class.std::locale::facet.base" = type <{ i32 (...)**, i32 }>
%struct.__locale_struct = type { [13 x %struct.__locale_data*], i16*, i32*, i32*, [13 x i8*] }
%struct.__locale_data = type opaque
%"class.std::num_put" = type { %"class.std::locale::facet.base", [4 x i8] }
%"class.std::num_get" = type { %"class.std::locale::facet.base", [4 x i8] }

@_ZStL8__ioinit = internal global %"class.std::ios_base::Init" zeroinitializer, align 1
@__dso_handle = external hidden global i8
@_ZSt3cin = external global %"class.std::basic_istream", align 8
@_ZSt4cout = external global %"class.std::basic_ostream", align 8
@llvm.global_ctors = appending global [1 x { i32, void ()*, i8* }] [{ i32, void ()*, i8* } { i32 65535, void ()* @_GLOBAL__sub_I_753.cpp, i8* null }]

declare void @_ZNSt8ios_base4InitC1Ev(%"class.std::ios_base::Init"* nonnull align 1 dereferenceable(1)) unnamed_addr #0

; Function Attrs: nounwind
declare void @_ZNSt8ios_base4InitD1Ev(%"class.std::ios_base::Init"* nonnull align 1 dereferenceable(1)) unnamed_addr #1

; Function Attrs: nofree nounwind
declare i32 @__cxa_atexit(void (i8*)*, i8*, i8*) local_unnamed_addr #2

; Function Attrs: mustprogress norecurse sspstrong uwtable
define dso_local i32 @main() local_unnamed_addr #3 {
  %1 = alloca i32, align 4
  %2 = alloca i32, align 4
  %3 = alloca [1000 x i32], align 16
  %4 = bitcast i32* %1 to i8*
  call void @llvm.lifetime.start.p0i8(i64 4, i8* nonnull %4) #7
  %5 = bitcast i32* %2 to i8*
  call void @llvm.lifetime.start.p0i8(i64 4, i8* nonnull %5) #7
  %6 = bitcast [1000 x i32]* %3 to i8*
  call void @llvm.lifetime.start.p0i8(i64 4000, i8* nonnull %6) #7
  %7 = call nonnull align 8 dereferenceable(16) %"class.std::basic_istream"* @_ZNSirsERi(%"class.std::basic_istream"* nonnull align 8 dereferenceable(16) @_ZSt3cin, i32* nonnull align 4 dereferenceable(4) %1)
  %8 = call nonnull align 8 dereferenceable(16) %"class.std::basic_istream"* @_ZNSirsERi(%"class.std::basic_istream"* nonnull align 8 dereferenceable(16) %7, i32* nonnull align 4 dereferenceable(4) %2)
  %9 = load i32, i32* %2, align 4, !tbaa !5
  %10 = load i32, i32* %1, align 4, !tbaa !5
  %11 = sext i32 %10 to i64
  %12 = getelementptr inbounds [1000 x i32], [1000 x i32]* %3, i64 0, i64 %11
  %13 = add nsw i32 %10, -1
  %14 = icmp sgt i32 %10, 1
  %15 = add nsw i32 %9, %10
  store i32 %15, i32* %12, align 4, !tbaa !5
  br i1 %14, label %16, label %37

16:                                               ; preds = %0
  %17 = zext i32 %10 to i64
  %18 = getelementptr inbounds [1000 x i32], [1000 x i32]* %3, i64 0, i64 %17
  br label %19

19:                                               ; preds = %16, %34
  %20 = load i32, i32* %18, align 4, !tbaa !5
  br label %21

21:                                               ; preds = %27, %19
  %22 = phi i32 [ %20, %19 ], [ %30, %27 ]
  %23 = phi i32 [ %10, %19 ], [ %24, %27 ]
  %24 = add nsw i32 %23, -1
  %25 = srem i32 %22, %13
  %26 = icmp eq i32 %25, 0
  br i1 %26, label %27, label %34

27:                                               ; preds = %21
  %28 = mul nsw i32 %22, %10
  %29 = sdiv i32 %28, %13
  %30 = add nsw i32 %29, %9
  %31 = zext i32 %24 to i64
  %32 = getelementptr inbounds [1000 x i32], [1000 x i32]* %3, i64 0, i64 %31
  store i32 %30, i32* %32, align 4, !tbaa !5
  %33 = icmp sgt i32 %23, 2
  br i1 %33, label %21, label %37, !llvm.loop !9

34:                                               ; preds = %21
  %35 = load i32, i32* %12, align 4, !tbaa !5
  %36 = add nsw i32 %35, %10
  store i32 %36, i32* %12, align 4, !tbaa !5
  br label %19

37:                                               ; preds = %27, %0
  %38 = getelementptr inbounds [1000 x i32], [1000 x i32]* %3, i64 0, i64 1
  %39 = load i32, i32* %38, align 4, !tbaa !5
  %40 = call nonnull align 8 dereferenceable(8) %"class.std::basic_ostream"* @_ZNSolsEi(%"class.std::basic_ostream"* nonnull align 8 dereferenceable(8) @_ZSt4cout, i32 %39)
  %41 = bitcast %"class.std::basic_ostream"* %40 to i8**
  %42 = load i8*, i8** %41, align 8, !tbaa !11
  %43 = getelementptr i8, i8* %42, i64 -24
  %44 = bitcast i8* %43 to i64*
  %45 = load i64, i64* %44, align 8
  %46 = bitcast %"class.std::basic_ostream"* %40 to i8*
  %47 = add nsw i64 %45, 240
  %48 = getelementptr inbounds i8, i8* %46, i64 %47
  %49 = bitcast i8* %48 to %"class.std::ctype"**
  %50 = load %"class.std::ctype"*, %"class.std::ctype"** %49, align 8, !tbaa !13
  %51 = icmp eq %"class.std::ctype"* %50, null
  br i1 %51, label %52, label %53

52:                                               ; preds = %37
  call void @_ZSt16__throw_bad_castv() #8
  unreachable

53:                                               ; preds = %37
  %54 = getelementptr inbounds %"class.std::ctype", %"class.std::ctype"* %50, i64 0, i32 8
  %55 = load i8, i8* %54, align 8, !tbaa !17
  %56 = icmp eq i8 %55, 0
  br i1 %56, label %60, label %57

57:                                               ; preds = %53
  %58 = getelementptr inbounds %"class.std::ctype", %"class.std::ctype"* %50, i64 0, i32 9, i64 10
  %59 = load i8, i8* %58, align 1, !tbaa !19
  br label %66

60:                                               ; preds = %53
  call void @_ZNKSt5ctypeIcE13_M_widen_initEv(%"class.std::ctype"* nonnull align 8 dereferenceable(570) %50)
  %61 = bitcast %"class.std::ctype"* %50 to i8 (%"class.std::ctype"*, i8)***
  %62 = load i8 (%"class.std::ctype"*, i8)**, i8 (%"class.std::ctype"*, i8)*** %61, align 8, !tbaa !11
  %63 = getelementptr inbounds i8 (%"class.std::ctype"*, i8)*, i8 (%"class.std::ctype"*, i8)** %62, i64 6
  %64 = load i8 (%"class.std::ctype"*, i8)*, i8 (%"class.std::ctype"*, i8)** %63, align 8
  %65 = call signext i8 %64(%"class.std::ctype"* nonnull align 8 dereferenceable(570) %50, i8 signext 10)
  br label %66

66:                                               ; preds = %57, %60
  %67 = phi i8 [ %59, %57 ], [ %65, %60 ]
  %68 = call nonnull align 8 dereferenceable(8) %"class.std::basic_ostream"* @_ZNSo3putEc(%"class.std::basic_ostream"* nonnull align 8 dereferenceable(8) %40, i8 signext %67)
  %69 = call nonnull align 8 dereferenceable(8) %"class.std::basic_ostream"* @_ZNSo5flushEv(%"class.std::basic_ostream"* nonnull align 8 dereferenceable(8) %68)
  call void @llvm.lifetime.end.p0i8(i64 4000, i8* nonnull %6) #7
  call void @llvm.lifetime.end.p0i8(i64 4, i8* nonnull %5) #7
  call void @llvm.lifetime.end.p0i8(i64 4, i8* nonnull %4) #7
  ret i32 0
}

; Function Attrs: argmemonly mustprogress nofree nosync nounwind willreturn
declare void @llvm.lifetime.start.p0i8(i64 immarg, i8* nocapture) #4

declare nonnull align 8 dereferenceable(16) %"class.std::basic_istream"* @_ZNSirsERi(%"class.std::basic_istream"* nonnull align 8 dereferenceable(16), i32* nonnull align 4 dereferenceable(4)) local_unnamed_addr #0

declare nonnull align 8 dereferenceable(8) %"class.std::basic_ostream"* @_ZNSolsEi(%"class.std::basic_ostream"* nonnull align 8 dereferenceable(8), i32) local_unnamed_addr #0

; Function Attrs: argmemonly mustprogress nofree nosync nounwind willreturn
declare void @llvm.lifetime.end.p0i8(i64 immarg, i8* nocapture) #4

declare nonnull align 8 dereferenceable(8) %"class.std::basic_ostream"* @_ZNSo3putEc(%"class.std::basic_ostream"* nonnull align 8 dereferenceable(8), i8 signext) local_unnamed_addr #0

declare nonnull align 8 dereferenceable(8) %"class.std::basic_ostream"* @_ZNSo5flushEv(%"class.std::basic_ostream"* nonnull align 8 dereferenceable(8)) local_unnamed_addr #0

; Function Attrs: noreturn
declare void @_ZSt16__throw_bad_castv() local_unnamed_addr #5

declare void @_ZNKSt5ctypeIcE13_M_widen_initEv(%"class.std::ctype"* nonnull align 8 dereferenceable(570)) local_unnamed_addr #0

; Function Attrs: sspstrong uwtable
define internal void @_GLOBAL__sub_I_753.cpp() #6 section ".text.startup" {
  tail call void @_ZNSt8ios_base4InitC1Ev(%"class.std::ios_base::Init"* nonnull align 1 dereferenceable(1) @_ZStL8__ioinit)
  %1 = tail call i32 @__cxa_atexit(void (i8*)* bitcast (void (%"class.std::ios_base::Init"*)* @_ZNSt8ios_base4InitD1Ev to void (i8*)*), i8* getelementptr inbounds (%"class.std::ios_base::Init", %"class.std::ios_base::Init"* @_ZStL8__ioinit, i64 0, i32 0), i8* nonnull @__dso_handle) #7
  ret void
}


!llvm.module.flags = !{!0, !1, !2, !3}
!llvm.ident = !{!4}

!0 = !{i32 1, !"wchar_size", i32 4}
!1 = !{i32 7, !"PIC Level", i32 2}
!2 = !{i32 7, !"PIE Level", i32 2}
!3 = !{i32 7, !"uwtable", i32 1}
!4 = !{!"clang version 13.0.0"}
!5 = !{!6, !6, i64 0}
!6 = !{!"int", !7, i64 0}
!7 = !{!"omnipotent char", !8, i64 0}
!8 = !{!"Simple C++ TBAA"}
!9 = distinct !{!9, !10}
!10 = !{!"llvm.loop.mustprogress"}
!11 = !{!12, !12, i64 0}
!12 = !{!"vtable pointer", !8, i64 0}
!13 = !{!14, !15, i64 240}
!14 = !{!"_ZTSSt9basic_iosIcSt11char_traitsIcEE", !15, i64 216, !7, i64 224, !16, i64 225, !15, i64 232, !15, i64 240, !15, i64 248, !15, i64 256}
!15 = !{!"any pointer", !7, i64 0}
!16 = !{!"bool", !7, i64 0}
!17 = !{!18, !7, i64 56}
!18 = !{!"_ZTSSt5ctypeIcE", !15, i64 16, !16, i64 24, !15, i64 32, !15, i64 40, !15, i64 48, !7, i64 56, !7, i64 57, !7, i64 313, !7, i64 569}
!19 = !{!7, !7, i64 0}
